; Function Attrs: mustprogress uwtable
define void @_ZN6icu_756number20NumberRangeFormatter10withLocaleERKNS_6LocaleE(ptr noalias sret(%"class.icu_75::number::LocalizedNumberRangeFormatter") align 8 %agg.result, ptr noundef nonnull align 8 dereferenceable(217) %locale) local_unnamed_addr #1 align 2 personality ptr @__gxx_personality_v0 {
entry:
  %ref.tmp = alloca %"class.icu_75::number::UnlocalizedNumberRangeFormatter", align 8
  %formatter1.i.i.i.i = getelementptr inbounds i8, ptr %ref.tmp, i64 8
  call void @_ZN6icu_756number4impl10MacroPropsC2Ev(ptr noundef nonnull align 8 dereferenceable(472) %formatter1.i.i.i.i)
  %formatter2.i.i.i.i = getelementptr inbounds i8, ptr %ref.tmp, i64 488
  invoke void @_ZN6icu_756number4impl10MacroPropsC2Ev(ptr noundef nonnull align 8 dereferenceable(472) %formatter2.i.i.i.i)
          to label %invoke.cont.i.i.i.i unwind label %lpad.i.i.i.i

invoke.cont.i.i.i.i:                              ; preds = %entry
  %singleFormatter.i.i.i.i = getelementptr inbounds i8, ptr %ref.tmp, i64 968
  store i8 1, ptr %singleFormatter.i.i.i.i, align 8, !alias.scope !4
  %collapse.i.i.i.i = getelementptr inbounds i8, ptr %ref.tmp, i64 972
  store i32 0, ptr %collapse.i.i.i.i, align 4, !alias.scope !4
  %identityFallback.i.i.i.i = getelementptr inbounds i8, ptr %ref.tmp, i64 976
  store i32 2, ptr %identityFallback.i.i.i.i, align 8, !alias.scope !4
  %locale.i.i.i.i = getelementptr inbounds i8, ptr %ref.tmp, i64 984
  invoke void @_ZN6icu_756LocaleC1Ev(ptr noundef nonnull align 8 dereferenceable(217) %locale.i.i.i.i)
          to label %_ZN6icu_756number20NumberRangeFormatter4withEv.exit unwind label %lpad2.i.i.i.i

lpad.i.i.i.i:                                     ; preds = %entry
  %0 = landingpad { ptr, i32 }
          cleanup
  br label %ehcleanup.i.i.i.i

lpad2.i.i.i.i:                                    ; preds = %invoke.cont.i.i.i.i
  %1 = landingpad { ptr, i32 }
          cleanup
  call void @_ZN6icu_756number26UnlocalizedNumberFormatterD2Ev(ptr noundef nonnull align 8 dereferenceable(473) %formatter2.i.i.i.i) #10
  br label %ehcleanup.i.i.i.i

common.resume:                                    ; preds = %lpad, %ehcleanup.i.i.i.i
  %common.resume.op = phi { ptr, i32 } [ %.pn.i.i.i.i, %ehcleanup.i.i.i.i ], [ %2, %lpad ]
  resume { ptr, i32 } %common.resume.op

ehcleanup.i.i.i.i:                                ; preds = %lpad2.i.i.i.i, %lpad.i.i.i.i
  %.pn.i.i.i.i = phi { ptr, i32 } [ %1, %lpad2.i.i.i.i ], [ %0, %lpad.i.i.i.i ]
  call void @_ZN6icu_756number26UnlocalizedNumberFormatterD2Ev(ptr noundef nonnull align 8 dereferenceable(473) %formatter1.i.i.i.i) #10
  br label %common.resume

_ZN6icu_756number20NumberRangeFormatter4withEv.exit: ; preds = %invoke.cont.i.i.i.i
  invoke void @_ZN6icu_756number29LocalizedNumberRangeFormatterC1EONS0_4impl15RangeMacroPropsERKNS_6LocaleE(ptr noundef nonnull align 8 dereferenceable(1216) %agg.result, ptr noundef nonnull align 8 dereferenceable(1208) %ref.tmp, ptr noundef nonnull align 8 dereferenceable(217) %locale)
          to label %invoke.cont unwind label %lpad

invoke.cont:                                      ; preds = %_ZN6icu_756number20NumberRangeFormatter4withEv.exit
  call void @_ZN6icu_756number4impl15RangeMacroPropsD2Ev(ptr noundef nonnull align 8 dereferenceable(1208) %ref.tmp) #10
  ret void

lpad:                                             ; preds = %_ZN6icu_756number20NumberRangeFormatter4withEv.exit
  %2 = landingpad { ptr, i32 }
          cleanup
  call void @_ZN6icu_756number4impl15RangeMacroPropsD2Ev(ptr noundef nonnull align 8 dereferenceable(1208) %ref.tmp) #10
  br label %common.resume
}